target datalayout = "e-m:e-p270:32:32-p271:32:32-p272:64:64-i64:64-i128:128-f80:128-n8:16:32:64-S128"
target triple = "x86_64-pc-linux-gnu"

%struct.t_deffile = type { i32, ptr, ptr, ptr, ptr, i32, ptr }

@.str = private unnamed_addr constant [1 x i8] zeroinitializer, align 1
@.str.1 = private unnamed_addr constant [8 x i8] c"unknown\00", align 1
@.str.121 = private unnamed_addr constant [4 x i8] c"trx\00", align 1
@.str.122 = private unnamed_addr constant [4 x i8] c"trn\00", align 1
@.str.123 = private unnamed_addr constant [4 x i8] c"sto\00", align 1
@.str.124 = private unnamed_addr constant [4 x i8] c"stx\00", align 1
@.str.125 = private unnamed_addr constant [4 x i8] c"tps\00", align 1

; Function Attrs: mustprogress nounwind uwtable
define noundef ptr @_Z7ftp2exti(i32 noundef %0) #0 {
  %2 = alloca ptr, align 8
  %3 = alloca i32, align 4
  store i32 %0, ptr %3, align 4, !tbaa !4
  %4 = load i32, ptr %3, align 4, !tbaa !4
  %5 = icmp sle i32 0, %4
  br i1 %5, label %6, label %29

6:                                                ; preds = %1
  %7 = load i32, ptr %3, align 4, !tbaa !4
  %8 = icmp slt i32 %7, 44
  br i1 %8, label %9, label %29

9:                                                ; preds = %6
  %10 = load i32, ptr %3, align 4, !tbaa !4
  %11 = sext i32 %10 to i64
  %12 = getelementptr inbounds [44 x %struct.t_deffile], ptr @_ZL7deffile, i64 0, i64 %11
  %13 = getelementptr inbounds nuw %struct.t_deffile, ptr %12, i32 0, i32 1
  %14 = load ptr, ptr %13, align 8, !tbaa !8
  %15 = getelementptr inbounds i8, ptr %14, i64 0
  %16 = load i8, ptr %15, align 1, !tbaa !13
  %17 = sext i8 %16 to i32
  %18 = icmp ne i32 %17, 0
  br i1 %18, label %19, label %26

19:                                               ; preds = %9
  %20 = load i32, ptr %3, align 4, !tbaa !4
  %21 = sext i32 %20 to i64
  %22 = getelementptr inbounds [44 x %struct.t_deffile], ptr @_ZL7deffile, i64 0, i64 %21
  %23 = getelementptr inbounds nuw %struct.t_deffile, ptr %22, i32 0, i32 1
  %24 = load ptr, ptr %23, align 8, !tbaa !8
  %25 = getelementptr inbounds i8, ptr %24, i64 1
  br label %27

26:                                               ; preds = %9
  br label %27

27:                                               ; preds = %26, %19
  %28 = phi ptr [ %25, %19 ], [ @.str, %26 ]
  store ptr %28, ptr %2, align 8
  br label %30

29:                                               ; preds = %6, %1
  store ptr @.str.1, ptr %2, align 8
  br label %30

30:                                               ; preds = %29, %27
  %31 = load ptr, ptr %2, align 8
  ret ptr %31
}

; Function Attrs: mustprogress nounwind uwtable
define noundef ptr @_Z15ftp2ext_generici(i32 noundef %0) #0 {
  %2 = alloca ptr, align 8
  %3 = alloca i32, align 4
  store i32 %0, ptr %3, align 4, !tbaa !4
  %4 = load i32, ptr %3, align 4, !tbaa !4
  %5 = icmp sle i32 0, %4
  br i1 %5, label %6, label %19

6:                                                ; preds = %1
  %7 = load i32, ptr %3, align 4, !tbaa !4
  %8 = icmp slt i32 %7, 44
  br i1 %8, label %9, label %19

9:                                                ; preds = %6
  %10 = load i32, ptr %3, align 4, !tbaa !4
  switch i32 %10, label %16 [
    i32 1, label %11
    i32 3, label %12
    i32 10, label %13
    i32 9, label %14
    i32 25, label %15
  ]

11:                                               ; preds = %9
  store ptr @.str.121, ptr %2, align 8
  br label %20

12:                                               ; preds = %9
  store ptr @.str.122, ptr %2, align 8
  br label %20

13:                                               ; preds = %9
  store ptr @.str.123, ptr %2, align 8
  br label %20

14:                                               ; preds = %9
  store ptr @.str.124, ptr %2, align 8
  br label %20

15:                                               ; preds = %9
  store ptr @.str.125, ptr %2, align 8
  br label %20

16:                                               ; preds = %9
  %17 = load i32, ptr %3, align 4, !tbaa !4
  %18 = call noundef ptr @_Z7ftp2exti(i32 noundef %17)
  store ptr %18, ptr %2, align 8
  br label %20

19:                                               ; preds = %6, %1
  store ptr @.str.1, ptr %2, align 8
  br label %20

20:                                               ; preds = %19, %16, %15, %14, %13, %12, %11
  %21 = load ptr, ptr %2, align 8
  ret ptr %21
}