; Function Attrs: mustprogress nofree norecurse nosync nounwind willreturn memory(read, inaccessiblemem: none) uwtable
define noundef nonnull ptr @_Z15ftp2ext_generici(i32 noundef %0) local_unnamed_addr #0 {
  %or.cond = icmp ult i32 %0, 44
  br i1 %or.cond, label %2, label %12

2:                                                ; preds = %1
  switch i32 %0, label %_Z7ftp2exti.exit [
    i32 1, label %12
    i32 3, label %3
    i32 10, label %4
    i32 9, label %5
    i32 25, label %6
  ]

3:                                                ; preds = %2
  br label %12

4:                                                ; preds = %2
  br label %12

5:                                                ; preds = %2
  br label %12

6:                                                ; preds = %2
  br label %12

_Z7ftp2exti.exit:                                 ; preds = %2
  %7 = zext nneg i32 %0 to i64
  %8 = getelementptr inbounds nuw [44 x %struct.t_deffile], ptr @_ZL7deffile, i64 0, i64 %7, i32 1
  %9 = load ptr, ptr %8, align 8, !tbaa !4
  %10 = load i8, ptr %9, align 1, !tbaa !12
  %.not.i = icmp eq i8 %10, 0
  %11 = getelementptr inbounds nuw i8, ptr %9, i64 1
  %spec.select.i = select i1 %.not.i, ptr @.str, ptr %11
  br label %12

12:                                               ; preds = %1, %2, %_Z7ftp2exti.exit, %6, %5, %4, %3
  %.0 = phi ptr [ %spec.select.i, %_Z7ftp2exti.exit ], [ @.str.125, %6 ], [ @.str.124, %5 ], [ @.str.123, %4 ], [ @.str.122, %3 ], [ @.str.121, %2 ], [ @.str.1, %1 ]
  ret ptr %.0
}